target datalayout = "e-m:e-p270:32:32-p271:32:32-p272:64:64-i64:64-i128:128-f80:128-n8:16:32:64-S128"
target triple = "x86_64-unknown-linux-gnu"

%union.anon.0 = type { %struct.QTailQLink }
%struct.QTailQLink = type { ptr, ptr }
%struct.StatsCallbacks = type { i32, ptr, ptr, %union.anon }
%union.anon = type { %struct.QTailQLink }
%struct.ErrorPropagator = type { ptr, ptr }

@stats_callbacks = internal global %union.anon.0 { %struct.QTailQLink { ptr null, ptr @stats_callbacks } }, align 8
@error_fatal = external global ptr, align 8

; Function Attrs: nounwind sspstrong uwtable
define internal void @error_propagator_cleanup(ptr noundef %prop) #0 {
entry:
  %prop.addr = alloca ptr, align 8
  store ptr %prop, ptr %prop.addr, align 8
  %0 = load ptr, ptr %prop.addr, align 8
  %errp = getelementptr inbounds %struct.ErrorPropagator, ptr %0, i32 0, i32 1
  %1 = load ptr, ptr %errp, align 8
  %2 = load ptr, ptr %prop.addr, align 8
  %local_err = getelementptr inbounds %struct.ErrorPropagator, ptr %2, i32 0, i32 0
  %3 = load ptr, ptr %local_err, align 8
  call void @error_propagate(ptr noundef %1, ptr noundef %3)
  ret void
}

; Function Attrs: nounwind sspstrong uwtable
define internal void @glib_auto_cleanup_ErrorPropagator(ptr noundef %_ptr) #0 {
entry:
  %_ptr.addr = alloca ptr, align 8
  store ptr %_ptr, ptr %_ptr.addr, align 8
  %0 = load ptr, ptr %_ptr.addr, align 8
  call void @error_propagator_cleanup(ptr noundef %0)
  ret void
}

; Function Attrs: nounwind sspstrong uwtable
define dso_local ptr @qmp_query_stats_schemas(i1 noundef zeroext %has_provider, i32 noundef %provider, ptr noundef %errp) #0 {
entry:
  %retval = alloca ptr, align 8
  %has_provider.addr = alloca i8, align 1
  %provider.addr = alloca i32, align 4
  %errp.addr = alloca ptr, align 8
  %_auto_errp_prop = alloca %struct.ErrorPropagator, align 8
  %stats_results = alloca ptr, align 8
  %entry3 = alloca ptr, align 8
  %cleanup.dest.slot = alloca i32, align 4
  %frombool = zext i1 %has_provider to i8
  store i8 %frombool, ptr %has_provider.addr, align 1
  store i32 %provider, ptr %provider.addr, align 4
  store ptr %errp, ptr %errp.addr, align 8
  %local_err = getelementptr inbounds %struct.ErrorPropagator, ptr %_auto_errp_prop, i32 0, i32 0
  store ptr null, ptr %local_err, align 8
  %errp1 = getelementptr inbounds %struct.ErrorPropagator, ptr %_auto_errp_prop, i32 0, i32 1
  %0 = load ptr, ptr %errp.addr, align 8
  store ptr %0, ptr %errp1, align 8
  br label %do.body

do.body:                                          ; preds = %entry
  %1 = load ptr, ptr %errp.addr, align 8
  %tobool = icmp ne ptr %1, null
  br i1 %tobool, label %lor.lhs.false, label %if.then

lor.lhs.false:                                    ; preds = %do.body
  %2 = load ptr, ptr %errp.addr, align 8
  %cmp = icmp eq ptr %2, @error_fatal
  br i1 %cmp, label %if.then, label %if.end

if.then:                                          ; preds = %lor.lhs.false, %do.body
  %local_err2 = getelementptr inbounds %struct.ErrorPropagator, ptr %_auto_errp_prop, i32 0, i32 0
  store ptr %local_err2, ptr %errp.addr, align 8
  br label %if.end

if.end:                                           ; preds = %if.then, %lor.lhs.false
  br label %do.cond

do.cond:                                          ; preds = %if.end
  br label %do.end

do.end:                                           ; preds = %do.cond
  store ptr null, ptr %stats_results, align 8
  %3 = load ptr, ptr @stats_callbacks, align 8
  store ptr %3, ptr %entry3, align 8
  br label %for.cond

for.cond:                                         ; preds = %for.inc, %do.end
  %4 = load ptr, ptr %entry3, align 8
  %tobool4 = icmp ne ptr %4, null
  br i1 %tobool4, label %for.body, label %for.end

for.body:                                         ; preds = %for.cond
  %5 = load i8, ptr %has_provider.addr, align 1
  %tobool5 = trunc i8 %5 to i1
  br i1 %tobool5, label %lor.lhs.false6, label %if.then9

lor.lhs.false6:                                   ; preds = %for.body
  %6 = load i32, ptr %provider.addr, align 4
  %7 = load ptr, ptr %entry3, align 8
  %provider7 = getelementptr inbounds %struct.StatsCallbacks, ptr %7, i32 0, i32 0
  %8 = load i32, ptr %provider7, align 8
  %cmp8 = icmp eq i32 %6, %8
  br i1 %cmp8, label %if.then9, label %if.end13

if.then9:                                         ; preds = %lor.lhs.false6, %for.body
  %9 = load ptr, ptr %entry3, align 8
  %schemas_cb = getelementptr inbounds %struct.StatsCallbacks, ptr %9, i32 0, i32 2
  %10 = load ptr, ptr %schemas_cb, align 8
  %11 = load ptr, ptr %errp.addr, align 8
  call void %10(ptr noundef %stats_results, ptr noundef %11)
  %12 = load ptr, ptr %errp.addr, align 8
  %13 = load ptr, ptr %12, align 8
  %tobool10 = icmp ne ptr %13, null
  br i1 %tobool10, label %if.then11, label %if.end12

if.then11:                                        ; preds = %if.then9
  %14 = load ptr, ptr %stats_results, align 8
  call void @qapi_free_StatsSchemaList(ptr noundef %14)
  store ptr null, ptr %retval, align 8
  store i32 1, ptr %cleanup.dest.slot, align 4
  br label %cleanup

if.end12:                                         ; preds = %if.then9
  br label %if.end13

if.end13:                                         ; preds = %if.end12, %lor.lhs.false6
  br label %for.inc

for.inc:                                          ; preds = %if.end13
  %15 = load ptr, ptr %entry3, align 8
  %next = getelementptr inbounds %struct.StatsCallbacks, ptr %15, i32 0, i32 3
  %16 = load ptr, ptr %next, align 8
  store ptr %16, ptr %entry3, align 8
  br label %for.cond, !llvm.loop !8

for.end:                                          ; preds = %for.cond
  %17 = load ptr, ptr %stats_results, align 8
  store ptr %17, ptr %retval, align 8
  store i32 1, ptr %cleanup.dest.slot, align 4
  br label %cleanup

cleanup:                                          ; preds = %for.end, %if.then11
  call void @glib_auto_cleanup_ErrorPropagator(ptr noundef %_auto_errp_prop)
  %18 = load ptr, ptr %retval, align 8
  ret ptr %18
}