; Function Attrs: nounwind sspstrong uwtable
define dso_local ptr @qmp_query_stats_schemas(i1 noundef zeroext %has_provider, i32 noundef %provider, ptr noundef %errp) local_unnamed_addr #0 {
entry:
  %_auto_errp_prop = alloca %struct.ErrorPropagator, align 8
  %stats_results = alloca ptr, align 8
  store ptr null, ptr %_auto_errp_prop, align 8
  %errp1 = getelementptr inbounds nuw i8, ptr %_auto_errp_prop, i64 8
  store ptr %errp, ptr %errp1, align 8
  %tobool = icmp eq ptr %errp, null
  %cmp = icmp eq ptr %errp, @error_fatal
  %or.cond = or i1 %tobool, %cmp
  %spec.select = select i1 %or.cond, ptr %_auto_errp_prop, ptr %errp
  store ptr null, ptr %stats_results, align 8
  %entry3.09 = load ptr, ptr @stats_callbacks, align 8
  %tobool4.not10 = icmp eq ptr %entry3.09, null
  br i1 %tobool4.not10, label %for.end, label %for.body.lr.ph

for.body.lr.ph:                                   ; preds = %entry
  br i1 %has_provider, label %for.body.us, label %for.body

for.body.us:                                      ; preds = %for.body.lr.ph, %for.inc.us
  %entry3.011.us = phi ptr [ %entry3.0.us, %for.inc.us ], [ %entry3.09, %for.body.lr.ph ]
  %0 = load i32, ptr %entry3.011.us, align 8
  %cmp8.us = icmp eq i32 %provider, %0
  br i1 %cmp8.us, label %if.then9.us, label %for.inc.us

if.then9.us:                                      ; preds = %for.body.us
  %schemas_cb.us = getelementptr inbounds nuw i8, ptr %entry3.011.us, i64 16
  %1 = load ptr, ptr %schemas_cb.us, align 8
  call void %1(ptr noundef nonnull %stats_results, ptr noundef %spec.select) #8
  %2 = load ptr, ptr %spec.select, align 8
  %tobool10.not.us = icmp eq ptr %2, null
  br i1 %tobool10.not.us, label %for.inc.us, label %if.then11

for.inc.us:                                       ; preds = %if.then9.us, %for.body.us
  %next.us = getelementptr inbounds nuw i8, ptr %entry3.011.us, i64 24
  %entry3.0.us = load ptr, ptr %next.us, align 8
  %tobool4.not.us = icmp eq ptr %entry3.0.us, null
  br i1 %tobool4.not.us, label %for.end, label %for.body.us, !llvm.loop !8

for.body:                                         ; preds = %for.body.lr.ph, %for.inc
  %entry3.011 = phi ptr [ %entry3.0, %for.inc ], [ %entry3.09, %for.body.lr.ph ]
  %schemas_cb = getelementptr inbounds nuw i8, ptr %entry3.011, i64 16
  %3 = load ptr, ptr %schemas_cb, align 8
  call void %3(ptr noundef nonnull %stats_results, ptr noundef nonnull %spec.select) #8
  %4 = load ptr, ptr %spec.select, align 8
  %tobool10.not = icmp eq ptr %4, null
  br i1 %tobool10.not, label %for.inc, label %if.then11

if.then11:                                        ; preds = %for.body, %if.then9.us
  %5 = load ptr, ptr %stats_results, align 8
  call void @qapi_free_StatsSchemaList(ptr noundef %5) #8
  br label %cleanup

for.inc:                                          ; preds = %for.body
  %next = getelementptr inbounds nuw i8, ptr %entry3.011, i64 24
  %entry3.0 = load ptr, ptr %next, align 8
  %tobool4.not = icmp eq ptr %entry3.0, null
  br i1 %tobool4.not, label %for.end, label %for.body, !llvm.loop !8

for.end:                                          ; preds = %for.inc, %for.inc.us, %entry
  %6 = load ptr, ptr %stats_results, align 8
  br label %cleanup

cleanup:                                          ; preds = %for.end, %if.then11
  %retval.0 = phi ptr [ null, %if.then11 ], [ %6, %for.end ]
  %_auto_errp_prop.val = load ptr, ptr %_auto_errp_prop, align 8
  %_auto_errp_prop.val8 = load ptr, ptr %errp1, align 8
  call void @error_propagate(ptr noundef %_auto_errp_prop.val8, ptr noundef %_auto_errp_prop.val) #8
  ret ptr %retval.0
}